target datalayout = "e-m:e-p270:32:32-p271:32:32-p272:64:64-i64:64-i128:128-f80:128-n8:16:32:64-S128"
target triple = "x86_64-pc-linux-gnu"

%struct.QuESTEnv = type { i32, i32, ptr, i32, ptr }

; Function Attrs: nounwind uwtable
define void @getQuESTSeeds(ptr noundef byval(%struct.QuESTEnv) align 8 %0, ptr noundef %1, ptr noundef %2) #0 {
  %4 = alloca ptr, align 8
  %5 = alloca ptr, align 8
  store ptr %1, ptr %4, align 8, !tbaa !63
  store ptr %2, ptr %5, align 8, !tbaa !27
  %6 = getelementptr inbounds nuw %struct.QuESTEnv, ptr %0, i32 0, i32 2
  %7 = load ptr, ptr %6, align 8, !tbaa !65
  %8 = load ptr, ptr %4, align 8, !tbaa !63
  store ptr %7, ptr %8, align 8, !tbaa !66
  %9 = getelementptr inbounds nuw %struct.QuESTEnv, ptr %0, i32 0, i32 3
  %10 = load i32, ptr %9, align 8, !tbaa !67
  %11 = load ptr, ptr %5, align 8, !tbaa !27
  store i32 %10, ptr %11, align 4, !tbaa !4
  ret void
}