; Function Attrs: mustprogress nofree norecurse nosync nounwind willreturn memory(argmem: readwrite) uwtable
define void @getQuESTSeeds(ptr noundef readonly byval(%struct.QuESTEnv) align 8 captures(none) %0, ptr noundef writeonly captures(none) initializes((0, 8)) %1, ptr noundef writeonly captures(none) initializes((0, 4)) %2) local_unnamed_addr #11 {
  %4 = getelementptr inbounds nuw i8, ptr %0, i64 8
  %5 = load ptr, ptr %4, align 8, !tbaa !44
  store ptr %5, ptr %1, align 8, !tbaa !45
  %6 = getelementptr inbounds nuw i8, ptr %0, i64 16
  %7 = load i32, ptr %6, align 8, !tbaa !46
  store i32 %7, ptr %2, align 4, !tbaa !20
  ret void
}